; ModuleID = '40/470.c'
source_filename = "40/470.c"
target datalayout = "e-m:e-p270:32:32-p271:32:32-p272:64:64-i64:64-f80:128-n8:16:32:64-S128"
target triple = "x86_64-pc-linux-gnu"

@.str = private unnamed_addr constant [11 x i8] c"%f%f%f%f%f\00", align 1
@.str.1 = private unnamed_addr constant [15 x i8] c"Invalid input\0A\00", align 1
@.str.2 = private unnamed_addr constant [6 x i8] c"%.4f\0A\00", align 1

; Function Attrs: noinline nounwind uwtable
define dso_local i32 @main() #0 {
  %1 = alloca i32, align 4
  %2 = alloca float, align 4
  %3 = alloca float, align 4
  %4 = alloca float, align 4
  %5 = alloca float, align 4
  %6 = alloca float, align 4
  %7 = alloca float, align 4
  %8 = alloca float, align 4
  %9 = alloca float, align 4
  %10 = alloca float, align 4
  %11 = alloca float, align 4
  store i32 0, i32* %1, align 4
  %12 = call i32 (i8*, ...) @__isoc99_scanf(i8* getelementptr inbounds ([11 x i8], [11 x i8]* @.str, i64 0, i64 0), float* %2, float* %3, float* %4, float* %5, float* %10)
  %13 = load float, float* %2, align 4
  %14 = load float, float* %3, align 4
  %15 = fadd float %13, %14
  %16 = load float, float* %4, align 4
  %17 = fadd float %15, %16
  %18 = load float, float* %5, align 4
  %19 = fadd float %17, %18
  %20 = fdiv float %19, 2.000000e+00
  store float %20, float* %6, align 4
  %21 = load float, float* %6, align 4
  %22 = load float, float* %2, align 4
  %23 = fsub float %21, %22
  %24 = load float, float* %6, align 4
  %25 = load float, float* %3, align 4
  %26 = fsub float %24, %25
  %27 = fmul float %23, %26
  %28 = load float, float* %6, align 4
  %29 = load float, float* %4, align 4
  %30 = fsub float %28, %29
  %31 = fmul float %27, %30
  %32 = load float, float* %6, align 4
  %33 = load float, float* %5, align 4
  %34 = fsub float %32, %33
  %35 = fmul float %31, %34
  store float %35, float* %9, align 4
  %36 = load float, float* %10, align 4
  %37 = fpext float %36 to double
  %38 = fmul double %37, 0x400921FB4D12D84A
  %39 = fdiv double %38, 3.600000e+02
  %40 = fptrunc double %39 to float
  store float %40, float* %11, align 4
  %41 = load float, float* %2, align 4
  %42 = load float, float* %3, align 4
  %43 = fmul float %41, %42
  %44 = load float, float* %4, align 4
  %45 = fmul float %43, %44
  %46 = load float, float* %5, align 4
  %47 = fmul float %45, %46
  %48 = fpext float %47 to double
  %49 = load float, float* %11, align 4
  %50 = fpext float %49 to double
  %51 = call double @cos(double %50) #3
  %52 = fmul double %48, %51
  %53 = load float, float* %11, align 4
  %54 = fpext float %53 to double
  %55 = call double @cos(double %54) #3
  %56 = fmul double %52, %55
  %57 = fptrunc double %56 to float
  store float %57, float* %8, align 4
  %58 = load float, float* %9, align 4
  %59 = fcmp olt float %58, 0.000000e+00
  br i1 %59, label %60, label %62

60:                                               ; preds = %0
  %61 = call i32 (i8*, ...) @printf(i8* getelementptr inbounds ([15 x i8], [15 x i8]* @.str.1, i64 0, i64 0))
  br label %72

62:                                               ; preds = %0
  %63 = load float, float* %9, align 4
  %64 = load float, float* %8, align 4
  %65 = fsub float %63, %64
  %66 = fpext float %65 to double
  %67 = call double @sqrt(double %66) #3
  %68 = fptrunc double %67 to float
  store float %68, float* %7, align 4
  %69 = load float, float* %7, align 4
  %70 = fpext float %69 to double
  %71 = call i32 (i8*, ...) @printf(i8* getelementptr inbounds ([6 x i8], [6 x i8]* @.str.2, i64 0, i64 0), double %70)
  br label %72

72:                                               ; preds = %62, %60
  ret i32 0
}

declare dso_local i32 @__isoc99_scanf(i8*, ...) #1

; Function Attrs: nounwind
declare dso_local double @cos(double) #2

declare dso_local i32 @printf(i8*, ...) #1

; Function Attrs: nounwind
declare dso_local double @sqrt(double) #2


!llvm.module.flags = !{!0}
!llvm.ident = !{!1}

!0 = !{i32 1, !"wchar_size", i32 4}
!1 = !{!"clang version 10.0.0-4ubuntu1 "}
